target datalayout = "e-m:e-p270:32:32-p271:32:32-p272:64:64-i64:64-i128:128-f80:128-n8:16:32:64-S128"
target triple = "x86_64-pc-linux-gnu"

%union.pthread_mutex_t = type { %struct.__pthread_mutex_s }
%struct.__pthread_mutex_s = type { i32, i32, i32, i32, i32, i16, i16, %struct.__pthread_internal_list }
%struct.__pthread_internal_list = type { ptr, ptr }
%struct.slurm_conf_t = type { i64, ptr, i16, ptr, ptr, ptr, ptr, ptr, i16, ptr, ptr, ptr, ptr, ptr, ptr, ptr, i16, ptr, ptr, ptr, ptr, i16, ptr, ptr, ptr, i64, ptr, ptr, ptr, ptr, i16, ptr, ptr, i16, i32, ptr, i32, ptr, i32, i32, ptr, ptr, i64, i64, ptr, i16, i16, ptr, i32, i32, ptr, i32, ptr, i32, i16, i16, i16, ptr, i16, i16, ptr, ptr, i32, i16, i16, ptr, i32, i16, ptr, ptr, ptr, ptr, i16, ptr, ptr, ptr, ptr, i32, ptr, ptr, ptr, ptr, i16, i16, ptr, i32, i32, i32, i16, i16, ptr, ptr, i16, ptr, ptr, i32, i32, i32, i32, i32, i64, i32, i32, i16, ptr, ptr, i32, ptr, ptr, ptr, i16, i32, ptr, ptr, i16, ptr, ptr, i32, i16, ptr, ptr, ptr, ptr, i32, i32, i16, i16, i32, ptr, i16, ptr, i32, i32, i32, i32, i32, i32, ptr, i16, ptr, ptr, i32, i16, ptr, i32, i16, i16, ptr, ptr, ptr, i16, ptr, ptr, ptr, ptr, i16, i16, ptr, i16, ptr, i16, ptr, i16, ptr, i16, ptr, ptr, ptr, ptr, i16, ptr, ptr, ptr, i32, ptr, i32, ptr, ptr, i16, ptr, ptr, i32, i16, ptr, ptr, i16, i16, ptr, i16, ptr, ptr, ptr, i32, ptr, i16, i16, ptr, ptr, ptr, ptr, ptr, ptr, ptr, ptr, i16, i32, i16, ptr, ptr, ptr, ptr, i32, ptr, ptr, ptr, i16, ptr, ptr, ptr, i16, ptr, i16, ptr, i16, i16, ptr }
%struct.slurm_acct_gather_energy_ops = type { ptr, ptr, ptr, ptr, ptr, ptr }

@.str = private unnamed_addr constant [19 x i8] c"acct_gather_energy\00", align 1
@g_context_lock = internal global %union.pthread_mutex_t zeroinitializer, align 8
@.str.1 = private unnamed_addr constant [29 x i8] c"%s: pthread_mutex_lock(): %m\00", align 1
@__func__.acct_gather_energy_init = private unnamed_addr constant [24 x i8] c"acct_gather_energy_init\00", align 1
@g_context_num = internal global i32 -1, align 4
@slurm_conf = external global %struct.slurm_conf_t, align 8
@.str.2 = private unnamed_addr constant [2 x i8] c",\00", align 1
@ops = internal global ptr null, align 8
@.str.3 = private unnamed_addr constant [21 x i8] c"acct_gather_energy.c\00", align 1
@g_context = internal global ptr null, align 8
@.str.4 = private unnamed_addr constant [20 x i8] c"acct_gather_energy/\00", align 1
@.str.5 = private unnamed_addr constant [6 x i8] c"%s/%s\00", align 1
@syms = internal global [6 x ptr] [ptr @.str.20, ptr @.str.21, ptr @.str.22, ptr @.str.23, ptr @.str.24, ptr @.str.25], align 16
@.str.6 = private unnamed_addr constant [32 x i8] c"cannot create %s context for %s\00", align 1
@init_run = internal global i8 0, align 1
@.str.7 = private unnamed_addr constant [31 x i8] c"%s: pthread_mutex_unlock(): %m\00", align 1
@.str.8 = private unnamed_addr constant [27 x i8] c"can not open the %s plugin\00", align 1

; Function Attrs: nounwind uwtable
define dso_local i32 @acct_gather_energy_init() #0 {
  %1 = alloca i32, align 4
  %2 = alloca ptr, align 8
  %3 = alloca ptr, align 8
  %4 = alloca ptr, align 8
  %5 = alloca ptr, align 8
  %6 = alloca ptr, align 8
  %7 = alloca i32, align 4
  %8 = alloca i32, align 4
  call void @llvm.lifetime.start.p0(i64 4, ptr %1) #7
  store i32 0, ptr %1, align 4
  call void @llvm.lifetime.start.p0(i64 8, ptr %2) #7
  store ptr @.str, ptr %2, align 8
  call void @llvm.lifetime.start.p0(i64 8, ptr %3) #7
  store ptr null, ptr %3, align 8
  call void @llvm.lifetime.start.p0(i64 8, ptr %4) #7
  store ptr null, ptr %4, align 8
  call void @llvm.lifetime.start.p0(i64 8, ptr %5) #7
  call void @llvm.lifetime.start.p0(i64 8, ptr %6) #7
  store ptr null, ptr %6, align 8
  br label %9

9:                                                ; preds = %0
  call void @llvm.lifetime.start.p0(i64 4, ptr %7) #7
  %10 = call i32 @pthread_mutex_lock(ptr noundef @g_context_lock) #7
  store i32 %10, ptr %7, align 4
  %11 = load i32, ptr %7, align 4
  %12 = icmp ne i32 %11, 0
  br i1 %12, label %13, label %16

13:                                               ; preds = %9
  %14 = load i32, ptr %7, align 4
  %15 = call ptr @__errno_location() #8
  store i32 %14, ptr %15, align 4
  call void (ptr, ...) @fatal_abort(ptr noundef @.str.1, ptr noundef @__func__.acct_gather_energy_init) #9
  unreachable

16:                                               ; preds = %9
  call void @llvm.lifetime.end.p0(i64 4, ptr %7) #7
  br label %17

17:                                               ; preds = %16
  br label %18

18:                                               ; preds = %17
  %19 = load i32, ptr @g_context_num, align 4
  %20 = icmp sge i32 %19, 0
  br i1 %20, label %21, label %22

21:                                               ; preds = %18
  br label %80

22:                                               ; preds = %18
  store i32 0, ptr @g_context_num, align 4
  %23 = load ptr, ptr getelementptr inbounds nuw (%struct.slurm_conf_t, ptr @slurm_conf, i32 0, i32 12), align 8
  %24 = icmp ne ptr %23, null
  br i1 %24, label %26, label %25

25:                                               ; preds = %22
  br label %80

26:                                               ; preds = %22
  %27 = load ptr, ptr getelementptr inbounds nuw (%struct.slurm_conf_t, ptr @slurm_conf, i32 0, i32 12), align 8
  %28 = call ptr @xstrdup(ptr noundef %27)
  store ptr %28, ptr %3, align 8
  %29 = load ptr, ptr %3, align 8
  store ptr %29, ptr %5, align 8
  br label %30

30:                                               ; preds = %76, %26
  %31 = load ptr, ptr %5, align 8
  %32 = call ptr @strtok_r(ptr noundef %31, ptr noundef @.str.2, ptr noundef %4) #7
  store ptr %32, ptr %6, align 8
  %33 = icmp ne ptr %32, null
  br i1 %33, label %34, label %79

34:                                               ; preds = %30
  %35 = load i32, ptr @g_context_num, align 4
  %36 = add nsw i32 %35, 1
  %37 = sext i32 %36 to i64
  %38 = mul i64 48, %37
  %39 = call ptr @slurm_xrecalloc(ptr noundef @ops, i64 noundef 1, i64 noundef %38, i1 noundef zeroext true, i1 noundef zeroext false, ptr noundef @.str.3, i32 noundef 151, ptr noundef @__func__.acct_gather_energy_init)
  %40 = load i32, ptr @g_context_num, align 4
  %41 = add nsw i32 %40, 1
  %42 = sext i32 %41 to i64
  %43 = mul i64 8, %42
  %44 = call ptr @slurm_xrecalloc(ptr noundef @g_context, i64 noundef 1, i64 noundef %43, i1 noundef zeroext true, i1 noundef zeroext false, ptr noundef @.str.3, i32 noundef 153, ptr noundef @__func__.acct_gather_energy_init)
  %45 = load ptr, ptr %6, align 8
  %46 = call i32 @xstrncmp(ptr noundef %45, ptr noundef @.str.4, i64 noundef 19)
  %47 = icmp ne i32 %46, 0
  br i1 %47, label %51, label %48

48:                                               ; preds = %34
  %49 = load ptr, ptr %6, align 8
  %50 = getelementptr inbounds i8, ptr %49, i64 19
  store ptr %50, ptr %6, align 8
  br label %51

51:                                               ; preds = %48, %34
  %52 = load ptr, ptr %2, align 8
  %53 = load ptr, ptr %6, align 8
  %54 = call ptr (ptr, ...) @xstrdup_printf(ptr noundef @.str.5, ptr noundef %52, ptr noundef %53)
  store ptr %54, ptr %6, align 8
  %55 = load ptr, ptr %2, align 8
  %56 = load ptr, ptr %6, align 8
  %57 = load ptr, ptr @ops, align 8
  %58 = load i32, ptr @g_context_num, align 4
  %59 = sext i32 %58 to i64
  %60 = getelementptr inbounds %struct.slurm_acct_gather_energy_ops, ptr %57, i64 %59
  %61 = call ptr @plugin_context_create(ptr noundef %55, ptr noundef %56, ptr noundef %60, ptr noundef @syms, i64 noundef 48)
  %62 = load ptr, ptr @g_context, align 8
  %63 = load i32, ptr @g_context_num, align 4
  %64 = sext i32 %63 to i64
  %65 = getelementptr inbounds ptr, ptr %62, i64 %64
  store ptr %61, ptr %65, align 8
  %66 = load ptr, ptr @g_context, align 8
  %67 = load i32, ptr @g_context_num, align 4
  %68 = sext i32 %67 to i64
  %69 = getelementptr inbounds ptr, ptr %66, i64 %68
  %70 = load ptr, ptr %69, align 8
  %71 = icmp ne ptr %70, null
  br i1 %71, label %76, label %72

72:                                               ; preds = %51
  %73 = load ptr, ptr %2, align 8
  %74 = load ptr, ptr %6, align 8
  %75 = call i32 (ptr, ...) @error(ptr noundef @.str.6, ptr noundef %73, ptr noundef %74)
  call void @slurm_xfree(ptr noundef %6)
  store i32 -1, ptr %1, align 4
  br label %79

76:                                               ; preds = %51
  call void @slurm_xfree(ptr noundef %6)
  %77 = load i32, ptr @g_context_num, align 4
  %78 = add nsw i32 %77, 1
  store i32 %78, ptr @g_context_num, align 4
  store ptr null, ptr %5, align 8
  br label %30, !llvm.loop !8

79:                                               ; preds = %72, %30
  call void @slurm_xfree(ptr noundef %3)
  store i8 1, ptr @init_run, align 1
  br label %80

80:                                               ; preds = %79, %25, %21
  br label %81

81:                                               ; preds = %80
  call void @llvm.lifetime.start.p0(i64 4, ptr %8) #7
  %82 = call i32 @pthread_mutex_unlock(ptr noundef @g_context_lock) #7
  store i32 %82, ptr %8, align 4
  %83 = load i32, ptr %8, align 4
  %84 = icmp ne i32 %83, 0
  br i1 %84, label %85, label %88

85:                                               ; preds = %81
  %86 = load i32, ptr %8, align 4
  %87 = call ptr @__errno_location() #8
  store i32 %86, ptr %87, align 4
  call void (ptr, ...) @fatal_abort(ptr noundef @.str.7, ptr noundef @__func__.acct_gather_energy_init) #9
  unreachable

88:                                               ; preds = %81
  call void @llvm.lifetime.end.p0(i64 4, ptr %8) #7
  br label %89

89:                                               ; preds = %88
  br label %90

90:                                               ; preds = %89
  %91 = load i32, ptr %1, align 4
  %92 = icmp ne i32 %91, 0
  br i1 %92, label %93, label %95

93:                                               ; preds = %90
  %94 = load ptr, ptr %6, align 8
  call void (ptr, ...) @fatal(ptr noundef @.str.8, ptr noundef %94) #9
  unreachable

95:                                               ; preds = %90
  call void @slurm_xfree(ptr noundef %6)
  %96 = load i32, ptr %1, align 4
  call void @llvm.lifetime.end.p0(i64 8, ptr %6) #7
  call void @llvm.lifetime.end.p0(i64 8, ptr %5) #7
  call void @llvm.lifetime.end.p0(i64 8, ptr %4) #7
  call void @llvm.lifetime.end.p0(i64 8, ptr %3) #7
  call void @llvm.lifetime.end.p0(i64 8, ptr %2) #7
  call void @llvm.lifetime.end.p0(i64 4, ptr %1) #7
  ret i32 %96
}