; Function Attrs: nounwind uwtable
define dso_local noundef i32 @acct_gather_energy_init() local_unnamed_addr #0 {
  %1 = alloca ptr, align 8
  %2 = alloca ptr, align 8
  %3 = alloca ptr, align 8
  call void @llvm.lifetime.start.p0(i64 8, ptr nonnull %1) #8
  store ptr null, ptr %1, align 8
  call void @llvm.lifetime.start.p0(i64 8, ptr nonnull %2) #8
  store ptr null, ptr %2, align 8
  call void @llvm.lifetime.start.p0(i64 8, ptr nonnull %3) #8
  store ptr null, ptr %3, align 8
  %4 = tail call i32 @pthread_mutex_lock(ptr noundef nonnull @g_context_lock) #8
  %.not = icmp eq i32 %4, 0
  br i1 %.not, label %7, label %5

5:                                                ; preds = %0
  %6 = tail call ptr @__errno_location() #9
  store i32 %4, ptr %6, align 4
  tail call void (ptr, ...) @fatal_abort(ptr noundef nonnull @.str.1, ptr noundef nonnull @__func__.acct_gather_energy_init) #10
  unreachable

7:                                                ; preds = %0
  %8 = load i32, ptr @g_context_num, align 4
  %9 = icmp sgt i32 %8, -1
  br i1 %9, label %51, label %10

10:                                               ; preds = %7
  store i32 0, ptr @g_context_num, align 4
  %11 = load ptr, ptr getelementptr inbounds nuw (i8, ptr @slurm_conf, i64 96), align 8
  %.not13 = icmp eq ptr %11, null
  br i1 %.not13, label %51, label %12

12:                                               ; preds = %10
  %13 = tail call ptr @xstrdup(ptr noundef nonnull %11) #8
  store ptr %13, ptr %1, align 8
  %14 = call ptr @strtok_r(ptr noundef %13, ptr noundef nonnull @.str.2, ptr noundef nonnull %2) #8
  store ptr %14, ptr %3, align 8
  %.not1421 = icmp eq ptr %14, null
  br i1 %.not1421, label %.loopexit, label %.lr.ph

.lr.ph:                                           ; preds = %12, %47
  %15 = load i32, ptr @g_context_num, align 4
  %16 = add nsw i32 %15, 1
  %17 = sext i32 %16 to i64
  %18 = mul nsw i64 %17, 48
  %19 = call ptr @slurm_xrecalloc(ptr noundef nonnull @ops, i64 noundef 1, i64 noundef %18, i1 noundef zeroext true, i1 noundef zeroext false, ptr noundef nonnull @.str.3, i32 noundef 151, ptr noundef nonnull @__func__.acct_gather_energy_init) #8
  %20 = load i32, ptr @g_context_num, align 4
  %21 = add nsw i32 %20, 1
  %22 = sext i32 %21 to i64
  %23 = shl nsw i64 %22, 3
  %24 = call ptr @slurm_xrecalloc(ptr noundef nonnull @g_context, i64 noundef 1, i64 noundef %23, i1 noundef zeroext true, i1 noundef zeroext false, ptr noundef nonnull @.str.3, i32 noundef 153, ptr noundef nonnull @__func__.acct_gather_energy_init) #8
  %25 = load ptr, ptr %3, align 8
  %26 = call i32 @xstrncmp(ptr noundef %25, ptr noundef nonnull @.str.4, i64 noundef 19) #8
  %.not15 = icmp eq i32 %26, 0
  %.pre = load ptr, ptr %3, align 8
  br i1 %.not15, label %27, label %29

27:                                               ; preds = %.lr.ph
  %28 = getelementptr inbounds nuw i8, ptr %.pre, i64 19
  store ptr %28, ptr %3, align 8
  br label %29

29:                                               ; preds = %27, %.lr.ph
  %30 = phi ptr [ %28, %27 ], [ %.pre, %.lr.ph ]
  %31 = call ptr (ptr, ...) @xstrdup_printf(ptr noundef nonnull @.str.5, ptr noundef nonnull @.str, ptr noundef %30) #8
  store ptr %31, ptr %3, align 8
  %32 = load ptr, ptr @ops, align 8
  %33 = load i32, ptr @g_context_num, align 4
  %34 = sext i32 %33 to i64
  %35 = getelementptr inbounds %struct.slurm_acct_gather_energy_ops, ptr %32, i64 %34
  %36 = call ptr @plugin_context_create(ptr noundef nonnull @.str, ptr noundef %31, ptr noundef %35, ptr noundef nonnull @syms, i64 noundef 48) #8
  %37 = load ptr, ptr @g_context, align 8
  %38 = load i32, ptr @g_context_num, align 4
  %39 = sext i32 %38 to i64
  %40 = getelementptr inbounds ptr, ptr %37, i64 %39
  store ptr %36, ptr %40, align 8
  %41 = load ptr, ptr @g_context, align 8
  %42 = getelementptr inbounds ptr, ptr %41, i64 %39
  %43 = load ptr, ptr %42, align 8
  %.not16 = icmp eq ptr %43, null
  br i1 %.not16, label %44, label %47

44:                                               ; preds = %29
  %45 = load ptr, ptr %3, align 8
  %46 = call i32 (ptr, ...) @error(ptr noundef nonnull @.str.6, ptr noundef nonnull @.str, ptr noundef %45) #8
  call void @slurm_xfree(ptr noundef nonnull %3) #8
  br label %.loopexit

47:                                               ; preds = %29
  call void @slurm_xfree(ptr noundef nonnull %3) #8
  %48 = load i32, ptr @g_context_num, align 4
  %49 = add nsw i32 %48, 1
  store i32 %49, ptr @g_context_num, align 4
  %50 = call ptr @strtok_r(ptr noundef null, ptr noundef nonnull @.str.2, ptr noundef nonnull %2) #8
  store ptr %50, ptr %3, align 8
  %.not14 = icmp eq ptr %50, null
  br i1 %.not14, label %.loopexit, label %.lr.ph, !llvm.loop !8

.loopexit:                                        ; preds = %47, %12, %44
  %.not1420 = phi i1 [ false, %44 ], [ true, %12 ], [ true, %47 ]
  call void @slurm_xfree(ptr noundef nonnull %1) #8
  store i1 true, ptr @init_run, align 1
  br label %51

51:                                               ; preds = %.loopexit, %7, %10
  %.1 = phi i1 [ true, %7 ], [ %.not1420, %.loopexit ], [ true, %10 ]
  %52 = call i32 @pthread_mutex_unlock(ptr noundef nonnull @g_context_lock) #8
  %.not17 = icmp eq i32 %52, 0
  br i1 %.not17, label %55, label %53

53:                                               ; preds = %51
  %54 = tail call ptr @__errno_location() #9
  store i32 %52, ptr %54, align 4
  call void (ptr, ...) @fatal_abort(ptr noundef nonnull @.str.7, ptr noundef nonnull @__func__.acct_gather_energy_init) #10
  unreachable

55:                                               ; preds = %51
  br i1 %.1, label %58, label %56

56:                                               ; preds = %55
  %57 = load ptr, ptr %3, align 8
  call void (ptr, ...) @fatal(ptr noundef nonnull @.str.8, ptr noundef %57) #10
  unreachable

58:                                               ; preds = %55
  call void @slurm_xfree(ptr noundef nonnull %3) #8
  call void @llvm.lifetime.end.p0(i64 8, ptr nonnull %3) #8
  call void @llvm.lifetime.end.p0(i64 8, ptr nonnull %2) #8
  call void @llvm.lifetime.end.p0(i64 8, ptr nonnull %1) #8
  ret i32 0
}